target datalayout = "e-m:e-p270:32:32-p271:32:32-p272:64:64-i64:64-i128:128-f80:128-n8:16:32:64-S128"
target triple = "x86_64-unknown-linux-gnu"

%"struct.hermes::vm::instrumentation::PerfCounter" = type { i32, ptr, i32, i64 }

; Function Attrs: mustprogress nounwind uwtable
define hidden noundef zeroext i1 @_ZN6hermes2vm15instrumentation10PerfEvents17endAndInsertStatsERNSt7__cxx1112basic_stringIcSt11char_traitsIcESaIcEEE(ptr noundef nonnull align 8 dereferenceable(32) %jsonStats) #0 align 2 {
entry:
  %retval = alloca i1, align 1
  %jsonStats.addr = alloca ptr, align 8
  %__range2 = alloca ptr, align 8
  %__begin2 = alloca ptr, align 8
  %__end2 = alloca ptr, align 8
  %counter = alloca ptr, align 8
  store ptr %jsonStats, ptr %jsonStats.addr, align 8
  store ptr @_ZN6hermes2vm15instrumentationL8countersE, ptr %__range2, align 8
  store ptr @_ZN6hermes2vm15instrumentationL8countersE, ptr %__begin2, align 8
  store ptr getelementptr inbounds (%"struct.hermes::vm::instrumentation::PerfCounter", ptr @_ZN6hermes2vm15instrumentationL8countersE, i64 5), ptr %__end2, align 8
  br label %for.cond

for.cond:                                         ; preds = %for.inc, %entry
  %0 = load ptr, ptr %__begin2, align 8
  %1 = load ptr, ptr %__end2, align 8
  %cmp = icmp ne ptr %0, %1
  br i1 %cmp, label %for.body, label %for.end

for.body:                                         ; preds = %for.cond
  %2 = load ptr, ptr %__begin2, align 8
  store ptr %2, ptr %counter, align 8
  %3 = load ptr, ptr %counter, align 8
  %4 = load ptr, ptr %jsonStats.addr, align 8
  %call = call noundef zeroext i1 @_ZN6hermes2vm15instrumentation11PerfCounter17endAndInsertStatsERNSt7__cxx1112basic_stringIcSt11char_traitsIcESaIcEEE(ptr noundef nonnull align 8 dereferenceable(32) %3, ptr noundef nonnull align 8 dereferenceable(32) %4)
  br i1 %call, label %if.end, label %if.then

if.then:                                          ; preds = %for.body
  store i1 false, ptr %retval, align 1
  br label %return

if.end:                                           ; preds = %for.body
  br label %for.inc

for.inc:                                          ; preds = %if.end
  %5 = load ptr, ptr %__begin2, align 8
  %incdec.ptr = getelementptr inbounds %"struct.hermes::vm::instrumentation::PerfCounter", ptr %5, i32 1
  store ptr %incdec.ptr, ptr %__begin2, align 8
  br label %for.cond

for.end:                                          ; preds = %for.cond
  store i1 true, ptr %retval, align 1
  br label %return

return:                                           ; preds = %for.end, %if.then
  %6 = load i1, ptr %retval, align 1
  ret i1 %6
}