; Function Attrs: mustprogress nounwind uwtable
define hidden noundef zeroext i1 @_ZN6hermes2vm15instrumentation10PerfEvents17endAndInsertStatsERNSt7__cxx1112basic_stringIcSt11char_traitsIcESaIcEEE(ptr noundef nonnull align 8 dereferenceable(32) %jsonStats) local_unnamed_addr #0 align 2 {
entry:
  br label %for.body

for.body:                                         ; preds = %for.body, %entry
  %__begin2.0.idx3 = phi i64 [ 0, %entry ], [ %__begin2.0.add, %for.body ]
  %__begin2.0.ptr = getelementptr inbounds i8, ptr @_ZN6hermes2vm15instrumentationL8countersE, i64 %__begin2.0.idx3
  %call = tail call noundef zeroext i1 @_ZN6hermes2vm15instrumentation11PerfCounter17endAndInsertStatsERNSt7__cxx1112basic_stringIcSt11char_traitsIcESaIcEEE(ptr noundef nonnull align 8 dereferenceable(32) %__begin2.0.ptr, ptr noundef nonnull align 8 dereferenceable(32) %jsonStats)
  %__begin2.0.add = add nuw nsw i64 %__begin2.0.idx3, 32
  %cmp.not = icmp ne i64 %__begin2.0.add, 160
  %or.cond.not = select i1 %call, i1 %cmp.not, i1 false
  br i1 %or.cond.not, label %for.body, label %return

return:                                           ; preds = %for.body
  ret i1 %call
}